target datalayout = "e-m:e-p270:32:32-p271:32:32-p272:64:64-i64:64-i128:128-f80:128-n8:16:32:64-S128"
target triple = "x86_64-pc-linux-gnu"

%"struct.duckdb_hll::sdshdr8" = type { i8, i8, i8, [1 x i8] }
%"struct.duckdb_hll::sdshdr16" = type { i16, i16, i8, [1 x i8] }
%"struct.duckdb_hll::sdshdr32" = type <{ i32, i32, i8, [1 x i8] }>
%"struct.duckdb_hll::sdshdr64" = type <{ i64, i64, i8, [1 x i8] }>

; Function Attrs: mustprogress nounwind uwtable
define void @_ZN10duckdb_hll10sdsIncrLenEPcl(ptr noundef %0, i64 noundef %1) #9 {
  %3 = alloca ptr, align 8
  %4 = alloca i64, align 8
  %5 = alloca i8, align 1
  %6 = alloca i64, align 8
  %7 = alloca ptr, align 8
  %8 = alloca i8, align 1
  %9 = alloca ptr, align 8
  %10 = alloca ptr, align 8
  %11 = alloca ptr, align 8
  %12 = alloca ptr, align 8
  store ptr %0, ptr %3, align 8, !tbaa !12
  store i64 %1, ptr %4, align 8, !tbaa !7
  call void @llvm.lifetime.start.p0(i64 1, ptr %5) #11
  %13 = load ptr, ptr %3, align 8, !tbaa !12
  %14 = getelementptr inbounds i8, ptr %13, i64 -1
  %15 = load i8, ptr %14, align 1, !tbaa !9
  store i8 %15, ptr %5, align 1, !tbaa !9
  call void @llvm.lifetime.start.p0(i64 8, ptr %6) #11
  %16 = load i8, ptr %5, align 1, !tbaa !9
  %17 = zext i8 %16 to i32
  %18 = and i32 %17, 7
  switch i32 %18, label %79 [
    i32 0, label %19
    i32 1, label %38
    i32 2, label %49
    i32 3, label %60
    i32 4, label %71
  ]

19:                                               ; preds = %2
  call void @llvm.lifetime.start.p0(i64 8, ptr %7) #11
  %20 = load ptr, ptr %3, align 8, !tbaa !12
  %21 = getelementptr inbounds i8, ptr %20, i64 -1
  store ptr %21, ptr %7, align 8, !tbaa !12
  call void @llvm.lifetime.start.p0(i64 1, ptr %8) #11
  %22 = load i8, ptr %5, align 1, !tbaa !9
  %23 = zext i8 %22 to i32
  %24 = ashr i32 %23, 3
  %25 = trunc i32 %24 to i8
  store i8 %25, ptr %8, align 1, !tbaa !9
  %26 = load i8, ptr %8, align 1, !tbaa !9
  %27 = zext i8 %26 to i64
  %28 = load i64, ptr %4, align 8, !tbaa !7
  %29 = add nsw i64 %27, %28
  %30 = shl i64 %29, 3
  %31 = or i64 0, %30
  %32 = trunc i64 %31 to i8
  %33 = load ptr, ptr %7, align 8, !tbaa !12
  store i8 %32, ptr %33, align 1, !tbaa !9
  %34 = load i8, ptr %8, align 1, !tbaa !9
  %35 = zext i8 %34 to i64
  %36 = load i64, ptr %4, align 8, !tbaa !7
  %37 = add nsw i64 %35, %36
  store i64 %37, ptr %6, align 8, !tbaa !7
  call void @llvm.lifetime.end.p0(i64 1, ptr %8) #11
  call void @llvm.lifetime.end.p0(i64 8, ptr %7) #11
  br label %80

38:                                               ; preds = %2
  call void @llvm.lifetime.start.p0(i64 8, ptr %9) #11
  %39 = load ptr, ptr %3, align 8, !tbaa !12
  %40 = getelementptr inbounds i8, ptr %39, i64 -4
  store ptr %40, ptr %9, align 8, !tbaa !14
  %41 = load i64, ptr %4, align 8, !tbaa !7
  %42 = load ptr, ptr %9, align 8, !tbaa !14
  %43 = getelementptr inbounds nuw %"struct.duckdb_hll::sdshdr8", ptr %42, i32 0, i32 0
  %44 = load i8, ptr %43, align 1, !tbaa !16
  %45 = zext i8 %44 to i64
  %46 = add nsw i64 %45, %41
  %47 = trunc i64 %46 to i8
  store i8 %47, ptr %43, align 1, !tbaa !16
  %48 = zext i8 %47 to i64
  store i64 %48, ptr %6, align 8, !tbaa !7
  call void @llvm.lifetime.end.p0(i64 8, ptr %9) #11
  br label %80

49:                                               ; preds = %2
  call void @llvm.lifetime.start.p0(i64 8, ptr %10) #11
  %50 = load ptr, ptr %3, align 8, !tbaa !12
  %51 = getelementptr inbounds i8, ptr %50, i64 -6
  store ptr %51, ptr %10, align 8, !tbaa !19
  %52 = load i64, ptr %4, align 8, !tbaa !7
  %53 = load ptr, ptr %10, align 8, !tbaa !19
  %54 = getelementptr inbounds nuw %"struct.duckdb_hll::sdshdr16", ptr %53, i32 0, i32 0
  %55 = load i16, ptr %54, align 1, !tbaa !21
  %56 = zext i16 %55 to i64
  %57 = add nsw i64 %56, %52
  %58 = trunc i64 %57 to i16
  store i16 %58, ptr %54, align 1, !tbaa !21
  %59 = zext i16 %58 to i64
  store i64 %59, ptr %6, align 8, !tbaa !7
  call void @llvm.lifetime.end.p0(i64 8, ptr %10) #11
  br label %80

60:                                               ; preds = %2
  call void @llvm.lifetime.start.p0(i64 8, ptr %11) #11
  %61 = load ptr, ptr %3, align 8, !tbaa !12
  %62 = getelementptr inbounds i8, ptr %61, i64 -10
  store ptr %62, ptr %11, align 8, !tbaa !25
  %63 = load i64, ptr %4, align 8, !tbaa !7
  %64 = load ptr, ptr %11, align 8, !tbaa !25
  %65 = getelementptr inbounds nuw %"struct.duckdb_hll::sdshdr32", ptr %64, i32 0, i32 0
  %66 = load i32, ptr %65, align 1, !tbaa !27
  %67 = zext i32 %66 to i64
  %68 = add nsw i64 %67, %63
  %69 = trunc i64 %68 to i32
  store i32 %69, ptr %65, align 1, !tbaa !27
  %70 = zext i32 %69 to i64
  store i64 %70, ptr %6, align 8, !tbaa !7
  call void @llvm.lifetime.end.p0(i64 8, ptr %11) #11
  br label %80

71:                                               ; preds = %2
  call void @llvm.lifetime.start.p0(i64 8, ptr %12) #11
  %72 = load ptr, ptr %3, align 8, !tbaa !12
  %73 = getelementptr inbounds i8, ptr %72, i64 -18
  store ptr %73, ptr %12, align 8, !tbaa !30
  %74 = load i64, ptr %4, align 8, !tbaa !7
  %75 = load ptr, ptr %12, align 8, !tbaa !30
  %76 = getelementptr inbounds nuw %"struct.duckdb_hll::sdshdr64", ptr %75, i32 0, i32 0
  %77 = load i64, ptr %76, align 1, !tbaa !32
  %78 = add i64 %77, %74
  store i64 %78, ptr %76, align 1, !tbaa !32
  store i64 %78, ptr %6, align 8, !tbaa !7
  call void @llvm.lifetime.end.p0(i64 8, ptr %12) #11
  br label %80

79:                                               ; preds = %2
  store i64 0, ptr %6, align 8, !tbaa !7
  br label %80

80:                                               ; preds = %79, %71, %60, %49, %38, %19
  %81 = load ptr, ptr %3, align 8, !tbaa !12
  %82 = load i64, ptr %6, align 8, !tbaa !7
  %83 = getelementptr inbounds nuw i8, ptr %81, i64 %82
  store i8 0, ptr %83, align 1, !tbaa !9
  call void @llvm.lifetime.end.p0(i64 8, ptr %6) #11
  call void @llvm.lifetime.end.p0(i64 1, ptr %5) #11
  ret void
}