; Function Attrs: mustprogress nofree norecurse nosync nounwind willreturn memory(argmem: readwrite) uwtable
define void @_ZN10duckdb_hll10sdsIncrLenEPcl(ptr noundef captures(none) %0, i64 noundef %1) local_unnamed_addr #10 {
  %3 = getelementptr inbounds i8, ptr %0, i64 -1
  %4 = load i8, ptr %3, align 1, !tbaa !20
  %5 = and i8 %4, 7
  switch i8 %5, label %33 [
    i8 0, label %6
    i8 1, label %11
    i8 2, label %17
    i8 3, label %23
    i8 4, label %29
  ]

6:                                                ; preds = %2
  %7 = lshr i8 %4, 3
  %8 = zext nneg i8 %7 to i64
  %9 = add nsw i64 %1, %8
  %.tr = trunc i64 %9 to i8
  %10 = shl i8 %.tr, 3
  store i8 %10, ptr %3, align 1, !tbaa !20
  br label %33

11:                                               ; preds = %2
  %12 = getelementptr inbounds i8, ptr %0, i64 -4
  %13 = load i8, ptr %12, align 1, !tbaa !3
  %14 = trunc i64 %1 to i8
  %15 = add i8 %13, %14
  store i8 %15, ptr %12, align 1, !tbaa !3
  %16 = zext i8 %15 to i64
  br label %33

17:                                               ; preds = %2
  %18 = getelementptr inbounds i8, ptr %0, i64 -6
  %19 = load i16, ptr %18, align 1, !tbaa !8
  %20 = trunc i64 %1 to i16
  %21 = add i16 %19, %20
  store i16 %21, ptr %18, align 1, !tbaa !8
  %22 = zext i16 %21 to i64
  br label %33

23:                                               ; preds = %2
  %24 = getelementptr inbounds i8, ptr %0, i64 -10
  %25 = load i32, ptr %24, align 1, !tbaa !12
  %26 = trunc i64 %1 to i32
  %27 = add i32 %25, %26
  store i32 %27, ptr %24, align 1, !tbaa !12
  %28 = zext i32 %27 to i64
  br label %33

29:                                               ; preds = %2
  %30 = getelementptr inbounds i8, ptr %0, i64 -18
  %31 = load i64, ptr %30, align 1, !tbaa !16
  %32 = add i64 %31, %1
  store i64 %32, ptr %30, align 1, !tbaa !16
  br label %33

33:                                               ; preds = %2, %29, %23, %17, %11, %6
  %.0 = phi i64 [ %32, %29 ], [ %28, %23 ], [ %22, %17 ], [ %16, %11 ], [ %9, %6 ], [ 0, %2 ]
  %34 = getelementptr inbounds nuw i8, ptr %0, i64 %.0
  store i8 0, ptr %34, align 1, !tbaa !20
  ret void
}